; Function Attrs: mustprogress nounwind uwtable
define hidden void @_ZN19G1PhaseDependentSeq3addEdb(ptr noundef nonnull align 8 dereferenceable(144) %0, double noundef %1, i1 noundef zeroext %2) local_unnamed_addr #1 align 2 {
  %.idx.i = select i1 %2, i64 0, i64 72
  %4 = getelementptr inbounds i8, ptr %0, i64 %.idx.i
  %5 = load ptr, ptr %4, align 8
  %6 = getelementptr inbounds i8, ptr %5, i64 8
  %7 = load ptr, ptr %6, align 8
  tail call void %7(ptr noundef nonnull align 8 dereferenceable(72) %4, double noundef %1) #7
  ret void
}